target datalayout = "e-m:e-p270:32:32-p271:32:32-p272:64:64-i64:64-i128:128-f80:128-n8:16:32:64-S128"
target triple = "x86_64-pc-linux-gnu"

%"struct.Luau::UninhabitedTypeFunction" = type { ptr }
%class.anon = type { ptr, ptr }
%class.anon.339 = type { ptr, ptr }
%class.anon.340 = type { ptr, ptr }

; Function Attrs: inlinehint mustprogress uwtable
define linkonce_odr dso_local noundef ptr @_ZZN4Luau9copyErrorINS_23UninhabitedTypeFunctionEEEvRT_RNS_9TypeArenaERNS_10CloneStateEENKUlOS2_E_clIRPKNS_4TypeEEEDaS8_(ptr noundef nonnull align 8 dereferenceable(16) %0, ptr noundef nonnull align 8 dereferenceable(8) %1) #6 comdat align 2 {
  %3 = alloca ptr, align 8
  %4 = alloca ptr, align 8
  store ptr %0, ptr %3, align 8, !tbaa !233
  store ptr %1, ptr %4, align 8, !tbaa !737
  %5 = load ptr, ptr %3, align 8
  %6 = load ptr, ptr %4, align 8, !tbaa !737
  %7 = load ptr, ptr %6, align 8, !tbaa !62
  %8 = getelementptr inbounds nuw %class.anon.339, ptr %5, i32 0, i32 0
  %9 = load ptr, ptr %8, align 8, !tbaa !982
  %10 = getelementptr inbounds nuw %class.anon.339, ptr %5, i32 0, i32 1
  %11 = load ptr, ptr %10, align 8, !tbaa !984
  %12 = call noundef ptr @_ZN4Luau5cloneEPKNS_4TypeERNS_9TypeArenaERNS_10CloneStateE(ptr noundef %7, ptr noundef nonnull align 8 dereferenceable(88) %9, ptr noundef nonnull align 8 dereferenceable(120) %11)
  ret ptr %12
}

; Function Attrs: mustprogress uwtable
define linkonce_odr dso_local void @_ZN4Luau9copyErrorINS_23UninhabitedTypeFunctionEEEvRT_RNS_9TypeArenaERNS_10CloneStateE(ptr noundef nonnull align 8 dereferenceable(8) %0, ptr noundef nonnull align 8 dereferenceable(88) %1, ptr noundef nonnull align 8 dereferenceable(120) %2) #3 comdat {
  %4 = alloca ptr, align 8
  %5 = alloca ptr, align 8
  %6 = alloca ptr, align 8
  %7 = alloca %class.anon.339, align 8
  %8 = alloca %class.anon.340, align 8
  store ptr %0, ptr %4, align 8, !tbaa !308
  store ptr %1, ptr %5, align 8, !tbaa !378
  store ptr %2, ptr %6, align 8, !tbaa !383
  call void @llvm.lifetime.start.p0(i64 16, ptr %7) #5
  %9 = getelementptr inbounds nuw %class.anon.339, ptr %7, i32 0, i32 0
  %10 = load ptr, ptr %5, align 8, !tbaa !378
  store ptr %10, ptr %9, align 8, !tbaa !378
  %11 = getelementptr inbounds nuw %class.anon.339, ptr %7, i32 0, i32 1
  %12 = load ptr, ptr %6, align 8, !tbaa !383
  store ptr %12, ptr %11, align 8, !tbaa !383
  call void @llvm.lifetime.start.p0(i64 16, ptr %8) #5
  %13 = getelementptr inbounds nuw %class.anon.340, ptr %8, i32 0, i32 0
  %14 = load ptr, ptr %5, align 8, !tbaa !378
  store ptr %14, ptr %13, align 8, !tbaa !378
  %15 = getelementptr inbounds nuw %class.anon.340, ptr %8, i32 0, i32 1
  %16 = load ptr, ptr %6, align 8, !tbaa !383
  store ptr %16, ptr %15, align 8, !tbaa !383
  %17 = load ptr, ptr %4, align 8, !tbaa !308
  %18 = getelementptr inbounds nuw %"struct.Luau::UninhabitedTypeFunction", ptr %17, i32 0, i32 0
  %19 = call noundef ptr @_ZZN4Luau9copyErrorINS_23UninhabitedTypeFunctionEEEvRT_RNS_9TypeArenaERNS_10CloneStateEENKUlOS2_E_clIRPKNS_4TypeEEEDaS8_(ptr noundef nonnull align 8 dereferenceable(16) %7, ptr noundef nonnull align 8 dereferenceable(8) %18)
  %20 = load ptr, ptr %4, align 8, !tbaa !308
  %21 = getelementptr inbounds nuw %"struct.Luau::UninhabitedTypeFunction", ptr %20, i32 0, i32 0
  store ptr %19, ptr %21, align 8, !tbaa !310
  call void @llvm.lifetime.end.p0(i64 16, ptr %8) #5
  call void @llvm.lifetime.end.p0(i64 16, ptr %7) #5
  ret void
}

; Function Attrs: inlinehint mustprogress uwtable
define internal void @"_ZZN4Luau10copyErrorsERSt6vectorINS_9TypeErrorESaIS1_EERNS_9TypeArenaENS_7NotNullINS_12BuiltinTypesEEEENK3$_0clIRNS_23UninhabitedTypeFunctionEEEDaOT_"(ptr noundef nonnull align 8 dereferenceable(16) %0, ptr noundef nonnull align 8 dereferenceable(8) %1) #6 align 2 {
  %3 = alloca ptr, align 8
  %4 = alloca ptr, align 8
  store ptr %0, ptr %3, align 8, !tbaa !233
  store ptr %1, ptr %4, align 8, !tbaa !308
  %5 = load ptr, ptr %3, align 8
  %6 = load ptr, ptr %4, align 8, !tbaa !308
  %7 = getelementptr inbounds nuw %class.anon, ptr %5, i32 0, i32 0
  %8 = load ptr, ptr %7, align 8, !tbaa !899
  %9 = getelementptr inbounds nuw %class.anon, ptr %5, i32 0, i32 1
  %10 = load ptr, ptr %9, align 8, !tbaa !901
  call void @_ZN4Luau9copyErrorINS_23UninhabitedTypeFunctionEEEvRT_RNS_9TypeArenaERNS_10CloneStateE(ptr noundef nonnull align 8 dereferenceable(8) %6, ptr noundef nonnull align 8 dereferenceable(88) %8, ptr noundef nonnull align 8 dereferenceable(120) %10)
  ret void
}

; Function Attrs: mustprogress uwtable
define internal void @"_ZN4LuauL8fnVisitVIRZNS_10copyErrorsERSt6vectorINS_9TypeErrorESaIS2_EERNS_9TypeArenaENS_7NotNullINS_12BuiltinTypesEEEE3$_0NS_23UninhabitedTypeFunctionEEEvRT_PNSt11conditionalIXsr3stdE10is_const_vIT0_EEKvvE4typeE"(ptr noundef nonnull align 8 dereferenceable(16) %0, ptr noundef %1) #3 {
  %3 = alloca ptr, align 8
  %4 = alloca ptr, align 8
  store ptr %0, ptr %3, align 8, !tbaa !233
  store ptr %1, ptr %4, align 8, !tbaa !233
  %5 = load ptr, ptr %3, align 8, !tbaa !233
  %6 = load ptr, ptr %4, align 8, !tbaa !233
  call void @"_ZZN4Luau10copyErrorsERSt6vectorINS_9TypeErrorESaIS1_EERNS_9TypeArenaENS_7NotNullINS_12BuiltinTypesEEEENK3$_0clIRNS_23UninhabitedTypeFunctionEEEDaOT_"(ptr noundef nonnull align 8 dereferenceable(16) %5, ptr noundef nonnull align 8 dereferenceable(8) %6)
  ret void
}