; Function Attrs: mustprogress uwtable
define internal void @"_ZN4LuauL8fnVisitVIRZNS_10copyErrorsERSt6vectorINS_9TypeErrorESaIS2_EERNS_9TypeArenaENS_7NotNullINS_12BuiltinTypesEEEE3$_0NS_23UninhabitedTypeFunctionEEEvRT_PNSt11conditionalIXsr3stdE10is_const_vIT0_EEKvvE4typeE"(ptr noundef nonnull readonly align 8 captures(none) dereferenceable(16) %0, ptr noundef captures(none) %1) #5 {
  %.val = load ptr, ptr %0, align 8, !tbaa !1029
  %3 = getelementptr inbounds nuw i8, ptr %0, i64 8
  %.val2 = load ptr, ptr %3, align 8, !tbaa !1031
  %4 = load ptr, ptr %1, align 8, !tbaa !182
  %5 = tail call noundef ptr @_ZN4Luau5cloneEPKNS_4TypeERNS_9TypeArenaERNS_10CloneStateE(ptr noundef %4, ptr noundef nonnull align 8 dereferenceable(88) %.val, ptr noundef nonnull align 8 dereferenceable(120) %.val2)
  store ptr %5, ptr %1, align 8, !tbaa !195
  ret void
}